target datalayout = "e-m:e-p270:32:32-p271:32:32-p272:64:64-i64:64-i128:128-f80:128-n8:16:32:64-S128"
target triple = "x86_64-pc-linux-gnu"

%struct.vec_t = type { ptr, i32 }
%struct._packet_info = type { ptr, ptr, i32, i32, %struct.nstime_t, %struct.nstime_t, %struct.nstime_t, i8, ptr, ptr, ptr, ptr, %struct._address, %struct._address, %struct._address, %struct._address, %struct._address, %struct._address, i32, ptr, i8, [3 x i8], %struct.anon, i32, i32, i32, i32, ptr, i8, ptr, ptr, i16, i16, i32, i32, i16, i32, i32, ptr, ptr, ptr, i8, i8, i16, i16, i16, i32, i16, i16, ptr, ptr, ptr, ptr, ptr, i32, i32 }
%struct.nstime_t = type { i64, i32 }
%struct._address = type { i32, i32, ptr, ptr }
%struct.anon = type { i8, [3 x i8] }

; Function Attrs: null_pointer_is_valid sspstrong uwtable
define hidden void @igmp_checksum(ptr noundef %0, ptr noundef %1, i32 noundef %2, i32 noundef %3, ptr noundef %4, ptr noundef %5, i32 noundef %6) #0 {
  %8 = alloca ptr, align 8
  %9 = alloca ptr, align 8
  %10 = alloca i32, align 4
  %11 = alloca i32, align 4
  %12 = alloca ptr, align 8
  %13 = alloca ptr, align 8
  %14 = alloca i32, align 4
  %15 = alloca [1 x %struct.vec_t], align 16
  store ptr %0, ptr %8, align 8
  store ptr %1, ptr %9, align 8
  store i32 %2, ptr %10, align 4
  store i32 %3, ptr %11, align 4
  store ptr %4, ptr %12, align 8
  store ptr %5, ptr %13, align 8
  store i32 %6, ptr %14, align 4
  call void @llvm.lifetime.start.p0(i64 16, ptr %15) #4
  %16 = load i32, ptr %14, align 4
  %17 = icmp eq i32 %16, 0
  br i1 %17, label %18, label %21

18:                                               ; preds = %7
  %19 = load ptr, ptr %9, align 8
  %20 = call i32 @tvb_reported_length(ptr noundef %19)
  store i32 %20, ptr %14, align 4
  br label %21

21:                                               ; preds = %18, %7
  %22 = load ptr, ptr %13, align 8
  %23 = getelementptr inbounds nuw %struct._packet_info, ptr %22, i32 0, i32 20
  %24 = load i8, ptr %23, align 8, !range !6, !noundef !7
  %25 = trunc i8 %24 to i1
  br i1 %25, label %54, label %26

26:                                               ; preds = %21
  %27 = load ptr, ptr %9, align 8
  %28 = call i32 @tvb_captured_length(ptr noundef %27)
  %29 = load i32, ptr %14, align 4
  %30 = icmp uge i32 %28, %29
  br i1 %30, label %31, label %54

31:                                               ; preds = %26
  br label %32

32:                                               ; preds = %31
  %33 = load i32, ptr %14, align 4
  %34 = getelementptr [1 x %struct.vec_t], ptr %15, i64 0, i64 0
  %35 = getelementptr inbounds nuw %struct.vec_t, ptr %34, i32 0, i32 1
  store i32 %33, ptr %35, align 8
  %36 = load ptr, ptr %9, align 8
  %37 = getelementptr [1 x %struct.vec_t], ptr %15, i64 0, i64 0
  %38 = getelementptr inbounds nuw %struct.vec_t, ptr %37, i32 0, i32 1
  %39 = load i32, ptr %38, align 8
  %40 = call ptr @tvb_get_ptr(ptr noundef %36, i32 noundef 0, i32 noundef %39)
  %41 = getelementptr [1 x %struct.vec_t], ptr %15, i64 0, i64 0
  %42 = getelementptr inbounds nuw %struct.vec_t, ptr %41, i32 0, i32 0
  store ptr %40, ptr %42, align 16
  br label %43

43:                                               ; preds = %32
  br label %44

44:                                               ; preds = %43
  %45 = load ptr, ptr %8, align 8
  %46 = load ptr, ptr %9, align 8
  %47 = load i32, ptr %10, align 4
  %48 = load i32, ptr %11, align 4
  %49 = load ptr, ptr %12, align 8
  %50 = load ptr, ptr %13, align 8
  %51 = getelementptr [1 x %struct.vec_t], ptr %15, i64 0, i64 0
  %52 = call i32 @in_cksum(ptr noundef %51, i32 noundef 1)
  %53 = call ptr @proto_tree_add_checksum(ptr noundef %45, ptr noundef %46, i32 noundef 2, i32 noundef %47, i32 noundef %48, ptr noundef %49, ptr noundef %50, i32 noundef %52, i32 noundef 0, i32 noundef 5)
  br label %62

54:                                               ; preds = %26, %21
  %55 = load ptr, ptr %8, align 8
  %56 = load ptr, ptr %9, align 8
  %57 = load i32, ptr %10, align 4
  %58 = load i32, ptr %11, align 4
  %59 = load ptr, ptr %12, align 8
  %60 = load ptr, ptr %13, align 8
  %61 = call ptr @proto_tree_add_checksum(ptr noundef %55, ptr noundef %56, i32 noundef 2, i32 noundef %57, i32 noundef %58, ptr noundef %59, ptr noundef %60, i32 noundef 0, i32 noundef 0, i32 noundef 0)
  br label %62

62:                                               ; preds = %54, %44
  call void @llvm.lifetime.end.p0(i64 16, ptr %15) #4
  ret void
}