; Function Attrs: null_pointer_is_valid sspstrong uwtable
define hidden void @igmp_checksum(ptr noundef %0, ptr noundef %1, i32 noundef %2, i32 noundef %3, ptr noundef %4, ptr noundef %5, i32 noundef %6) local_unnamed_addr #0 {
  %8 = alloca [1 x %struct.vec_t], align 16
  call void @llvm.lifetime.start.p0(i64 16, ptr nonnull %8) #4
  %9 = icmp eq i32 %6, 0
  br i1 %9, label %10, label %12

10:                                               ; preds = %7
  %11 = tail call i32 @tvb_reported_length(ptr noundef %1)
  br label %12

12:                                               ; preds = %10, %7
  %.0 = phi i32 [ %11, %10 ], [ %6, %7 ]
  %13 = getelementptr inbounds nuw i8, ptr %5, i64 272
  %14 = load i8, ptr %13, align 8, !range !6, !noundef !7
  %15 = trunc nuw i8 %14 to i1
  br i1 %15, label %23, label %16

16:                                               ; preds = %12
  %17 = tail call i32 @tvb_captured_length(ptr noundef %1)
  %.not = icmp ult i32 %17, %.0
  br i1 %.not, label %23, label %18

18:                                               ; preds = %16
  %19 = getelementptr inbounds nuw i8, ptr %8, i64 8
  store i32 %.0, ptr %19, align 8
  %20 = tail call ptr @tvb_get_ptr(ptr noundef %1, i32 noundef 0, i32 noundef %.0)
  store ptr %20, ptr %8, align 16
  %21 = call i32 @in_cksum(ptr noundef nonnull %8, i32 noundef 1)
  %22 = call ptr @proto_tree_add_checksum(ptr noundef %0, ptr noundef %1, i32 noundef 2, i32 noundef %2, i32 noundef %3, ptr noundef %4, ptr noundef %5, i32 noundef %21, i32 noundef 0, i32 noundef 5)
  br label %25

23:                                               ; preds = %16, %12
  %24 = tail call ptr @proto_tree_add_checksum(ptr noundef %0, ptr noundef %1, i32 noundef 2, i32 noundef %2, i32 noundef %3, ptr noundef %4, ptr noundef %5, i32 noundef 0, i32 noundef 0, i32 noundef 0)
  br label %25

25:                                               ; preds = %23, %18
  call void @llvm.lifetime.end.p0(i64 16, ptr nonnull %8) #4
  ret void
}